target datalayout = "e-m:e-p270:32:32-p271:32:32-p272:64:64-i64:64-i128:128-f80:128-n8:16:32:64-S128"
target triple = "x86_64-pc-linux-gnu"

%struct.ImVec4 = type { float, float, float, float }
%struct.ImVector = type { i32, i32, ptr }
%struct.ImDrawList = type { %struct.ImVector.0, %struct.ImVector.1, %struct.ImVector.2, i32, i32, ptr, ptr, ptr, %struct.ImVector, %struct.ImDrawCmdHeader, %struct.ImDrawListSplitter, %struct.ImVector.4, %struct.ImVector.5, %struct.ImVector.6, float, ptr }
%struct.ImVector.0 = type { i32, i32, ptr }
%struct.ImVector.1 = type { i32, i32, ptr }
%struct.ImVector.2 = type { i32, i32, ptr }
%struct.ImDrawCmdHeader = type <{ %struct.ImVec4, i64, i32, [4 x i8] }>
%struct.ImDrawListSplitter = type { i32, i32, %struct.ImVector.3 }
%struct.ImVector.3 = type { i32, i32, ptr }
%struct.ImVector.4 = type { i32, i32, ptr }
%struct.ImVector.5 = type { i32, i32, ptr }
%struct.ImVector.6 = type { i32, i32, ptr }
%struct.ImDrawCmd = type { %struct.ImVec4, i64, i32, i32, i32, ptr, ptr, i32, i32 }

; Function Attrs: inlinehint mustprogress nounwind uwtable
define linkonce_odr void @_ZN8ImVectorI9ImDrawCmdE8pop_backEv(ptr noundef nonnull align 8 dereferenceable(16) %0) #7 comdat align 2 {
  %2 = alloca ptr, align 8
  store ptr %0, ptr %2, align 8, !tbaa !63
  %3 = load ptr, ptr %2, align 8
  %4 = getelementptr inbounds nuw %struct.ImVector.0, ptr %3, i32 0, i32 0
  %5 = load i32, ptr %4, align 8, !tbaa !66
  %6 = add nsw i32 %5, -1
  store i32 %6, ptr %4, align 8, !tbaa !66
  ret void
}

; Function Attrs: mustprogress uwtable
define void @_ZN10ImDrawList17_TryMergeDrawCmdsEv(ptr noundef nonnull align 8 dereferenceable(216) %0) #6 align 2 {
  %2 = alloca ptr, align 8
  %3 = alloca ptr, align 8
  %4 = alloca ptr, align 8
  store ptr %0, ptr %2, align 8, !tbaa !43
  %5 = load ptr, ptr %2, align 8
  call void @llvm.lifetime.start.p0(i64 8, ptr %3) #17
  %6 = getelementptr inbounds nuw %struct.ImDrawList, ptr %5, i32 0, i32 0
  %7 = getelementptr inbounds nuw %struct.ImVector.0, ptr %6, i32 0, i32 2
  %8 = load ptr, ptr %7, align 8, !tbaa !119
  %9 = getelementptr inbounds nuw %struct.ImDrawList, ptr %5, i32 0, i32 0
  %10 = getelementptr inbounds nuw %struct.ImVector.0, ptr %9, i32 0, i32 0
  %11 = load i32, ptr %10, align 8, !tbaa !105
  %12 = sub nsw i32 %11, 1
  %13 = sext i32 %12 to i64
  %14 = getelementptr inbounds %struct.ImDrawCmd, ptr %8, i64 %13
  store ptr %14, ptr %3, align 8, !tbaa !106
  call void @llvm.lifetime.start.p0(i64 8, ptr %4) #17
  %15 = load ptr, ptr %3, align 8, !tbaa !106
  %16 = getelementptr inbounds %struct.ImDrawCmd, ptr %15, i64 -1
  store ptr %16, ptr %4, align 8, !tbaa !106
  %17 = load ptr, ptr %3, align 8, !tbaa !106
  %18 = load ptr, ptr %4, align 8, !tbaa !106
  %19 = call i32 @memcmp(ptr noundef %17, ptr noundef %18, i64 noundef 28) #19
  %20 = icmp eq i32 %19, 0
  br i1 %20, label %21, label %52

21:                                               ; preds = %1
  %22 = load ptr, ptr %4, align 8, !tbaa !106
  %23 = getelementptr inbounds nuw %struct.ImDrawCmd, ptr %22, i32 0, i32 3
  %24 = load i32, ptr %23, align 4, !tbaa !107
  %25 = load ptr, ptr %4, align 8, !tbaa !106
  %26 = getelementptr inbounds nuw %struct.ImDrawCmd, ptr %25, i32 0, i32 4
  %27 = load i32, ptr %26, align 8, !tbaa !109
  %28 = add i32 %24, %27
  %29 = load ptr, ptr %3, align 8, !tbaa !106
  %30 = getelementptr inbounds nuw %struct.ImDrawCmd, ptr %29, i32 0, i32 3
  %31 = load i32, ptr %30, align 4, !tbaa !107
  %32 = icmp eq i32 %28, %31
  br i1 %32, label %33, label %52

33:                                               ; preds = %21
  %34 = load ptr, ptr %3, align 8, !tbaa !106
  %35 = getelementptr inbounds nuw %struct.ImDrawCmd, ptr %34, i32 0, i32 5
  %36 = load ptr, ptr %35, align 8, !tbaa !113
  %37 = icmp eq ptr %36, null
  br i1 %37, label %38, label %52

38:                                               ; preds = %33
  %39 = load ptr, ptr %4, align 8, !tbaa !106
  %40 = getelementptr inbounds nuw %struct.ImDrawCmd, ptr %39, i32 0, i32 5
  %41 = load ptr, ptr %40, align 8, !tbaa !113
  %42 = icmp eq ptr %41, null
  br i1 %42, label %43, label %52

43:                                               ; preds = %38
  %44 = load ptr, ptr %3, align 8, !tbaa !106
  %45 = getelementptr inbounds nuw %struct.ImDrawCmd, ptr %44, i32 0, i32 4
  %46 = load i32, ptr %45, align 8, !tbaa !109
  %47 = load ptr, ptr %4, align 8, !tbaa !106
  %48 = getelementptr inbounds nuw %struct.ImDrawCmd, ptr %47, i32 0, i32 4
  %49 = load i32, ptr %48, align 8, !tbaa !109
  %50 = add i32 %49, %46
  store i32 %50, ptr %48, align 8, !tbaa !109
  %51 = getelementptr inbounds nuw %struct.ImDrawList, ptr %5, i32 0, i32 0
  call void @_ZN8ImVectorI9ImDrawCmdE8pop_backEv(ptr noundef nonnull align 8 dereferenceable(16) %51)
  br label %52

52:                                               ; preds = %43, %38, %33, %21, %1
  call void @llvm.lifetime.end.p0(i64 8, ptr %4) #17
  call void @llvm.lifetime.end.p0(i64 8, ptr %3) #17
  ret void
}