; Function Attrs: mustprogress nofree nounwind willreturn memory(readwrite, inaccessiblemem: none) uwtable
define void @_ZN10ImDrawList17_TryMergeDrawCmdsEv(ptr noundef nonnull align 8 captures(none) dereferenceable(216) %0) local_unnamed_addr #16 align 2 {
  %2 = getelementptr inbounds nuw i8, ptr %0, i64 8
  %3 = load ptr, ptr %2, align 8, !tbaa !74
  %4 = load i32, ptr %0, align 8, !tbaa !73
  %5 = sext i32 %4 to i64
  %6 = getelementptr %struct.ImDrawCmd, ptr %3, i64 %5
  %7 = getelementptr i8, ptr %6, i64 -64
  %8 = getelementptr i8, ptr %6, i64 -128
  %bcmp = tail call i32 @bcmp(ptr noundef nonnull dereferenceable(28) %7, ptr noundef nonnull dereferenceable(28) %8, i64 28)
  %9 = icmp eq i32 %bcmp, 0
  br i1 %9, label %10, label %32

10:                                               ; preds = %1
  %11 = getelementptr i8, ptr %6, i64 -100
  %12 = load i32, ptr %11, align 4, !tbaa !78
  %13 = getelementptr i8, ptr %6, i64 -96
  %14 = load i32, ptr %13, align 8, !tbaa !75
  %15 = add i32 %14, %12
  %16 = getelementptr i8, ptr %6, i64 -36
  %17 = load i32, ptr %16, align 4, !tbaa !78
  %18 = icmp eq i32 %15, %17
  br i1 %18, label %19, label %32

19:                                               ; preds = %10
  %20 = getelementptr i8, ptr %6, i64 -24
  %21 = load ptr, ptr %20, align 8, !tbaa !77
  %22 = icmp eq ptr %21, null
  br i1 %22, label %23, label %32

23:                                               ; preds = %19
  %24 = getelementptr i8, ptr %6, i64 -88
  %25 = load ptr, ptr %24, align 8, !tbaa !77
  %26 = icmp eq ptr %25, null
  br i1 %26, label %27, label %32

27:                                               ; preds = %23
  %28 = getelementptr i8, ptr %6, i64 -32
  %29 = load i32, ptr %28, align 8, !tbaa !75
  %30 = add i32 %29, %14
  store i32 %30, ptr %13, align 8, !tbaa !75
  %31 = add nsw i32 %4, -1
  store i32 %31, ptr %0, align 8, !tbaa !53
  br label %32

32:                                               ; preds = %27, %23, %19, %10, %1
  ret void
}